target datalayout = "e-m:e-p270:32:32-p271:32:32-p272:64:64-i64:64-i128:128-f80:128-n8:16:32:64-S128"
target triple = "x86_64-pc-linux-gnu"

%class.obj_ref = type { ptr, ptr }
%class.obj_ref.27 = type { ptr, ptr }

; Function Attrs: mustprogress nounwind uwtable
define linkonce_odr hidden void @_ZN7obj_refIN18dependency_managerIN11ast_manager22expr_dependency_configEE10dependencyES1_EC2ERS1_(ptr noundef nonnull align 8 dereferenceable(16) %0, ptr noundef nonnull align 8 dereferenceable(976) %1) unnamed_addr #6 comdat align 2 {
  %3 = alloca ptr, align 8
  %4 = alloca ptr, align 8
  store ptr %0, ptr %3, align 8, !tbaa !16
  store ptr %1, ptr %4, align 8, !tbaa !18
  %5 = load ptr, ptr %3, align 8
  %6 = getelementptr inbounds nuw %class.obj_ref, ptr %5, i32 0, i32 0
  store ptr null, ptr %6, align 8, !tbaa !20
  %7 = getelementptr inbounds nuw %class.obj_ref, ptr %5, i32 0, i32 1
  %8 = load ptr, ptr %4, align 8, !tbaa !18
  store ptr %8, ptr %7, align 8, !tbaa !18
  ret void
}

; Function Attrs: mustprogress uwtable
define hidden void @_ZN13expr_replacerclEP4exprR7obj_refIS0_11ast_managerERS2_I3appS3_E(ptr noundef nonnull align 8 dereferenceable(8) %0, ptr noundef %1, ptr noundef nonnull align 8 dereferenceable(16) %2, ptr noundef nonnull align 8 dereferenceable(16) %3) #4 align 2 personality ptr @__gxx_personality_v0 {
  %5 = alloca ptr, align 8
  %6 = alloca ptr, align 8
  %7 = alloca ptr, align 8
  %8 = alloca ptr, align 8
  %9 = alloca %class.obj_ref, align 8
  %10 = alloca ptr, align 8
  %11 = alloca i32, align 4
  store ptr %0, ptr %5, align 8, !tbaa !3
  store ptr %1, ptr %6, align 8, !tbaa !8
  store ptr %2, ptr %7, align 8, !tbaa !10
  store ptr %3, ptr %8, align 8, !tbaa !12
  %12 = load ptr, ptr %5, align 8
  call void @llvm.lifetime.start.p0(i64 16, ptr %9) #3
  %13 = load ptr, ptr %12, align 8, !tbaa !14
  %14 = getelementptr inbounds ptr, ptr %13, i64 2
  %15 = load ptr, ptr %14, align 8
  %16 = call noundef nonnull align 8 dereferenceable(976) ptr %15(ptr noundef nonnull align 8 dereferenceable(8) %12)
  call void @_ZN7obj_refIN18dependency_managerIN11ast_manager22expr_dependency_configEE10dependencyES1_EC2ERS1_(ptr noundef nonnull align 8 dereferenceable(16) %9, ptr noundef nonnull align 8 dereferenceable(976) %16)
  %17 = load ptr, ptr %6, align 8, !tbaa !8
  %18 = load ptr, ptr %7, align 8, !tbaa !10
  %19 = load ptr, ptr %8, align 8, !tbaa !12
  %20 = load ptr, ptr %12, align 8, !tbaa !14
  %21 = getelementptr inbounds ptr, ptr %20, i64 4
  %22 = load ptr, ptr %21, align 8
  invoke void %22(ptr noundef nonnull align 8 dereferenceable(8) %12, ptr noundef %17, ptr noundef nonnull align 8 dereferenceable(16) %18, ptr noundef nonnull align 8 dereferenceable(16) %19, ptr noundef nonnull align 8 dereferenceable(16) %9)
          to label %23 unwind label %24

23:                                               ; preds = %4
  call void @_ZN7obj_refIN18dependency_managerIN11ast_manager22expr_dependency_configEE10dependencyES1_ED2Ev(ptr noundef nonnull align 8 dereferenceable(16) %9) #3
  call void @llvm.lifetime.end.p0(i64 16, ptr %9) #3
  ret void

24:                                               ; preds = %4
  %25 = landingpad { ptr, i32 }
          cleanup
  %26 = extractvalue { ptr, i32 } %25, 0
  store ptr %26, ptr %10, align 8
  %27 = extractvalue { ptr, i32 } %25, 1
  store i32 %27, ptr %11, align 4
  call void @_ZN7obj_refIN18dependency_managerIN11ast_manager22expr_dependency_configEE10dependencyES1_ED2Ev(ptr noundef nonnull align 8 dereferenceable(16) %9) #3
  call void @llvm.lifetime.end.p0(i64 16, ptr %9) #3
  br label %28

28:                                               ; preds = %24
  %29 = load ptr, ptr %10, align 8
  %30 = load i32, ptr %11, align 4
  %31 = insertvalue { ptr, i32 } poison, ptr %29, 0
  %32 = insertvalue { ptr, i32 } %31, i32 %30, 1
  resume { ptr, i32 } %32
}

; Function Attrs: mustprogress nounwind uwtable
define linkonce_odr hidden void @_ZN7obj_refI3app11ast_managerEC2ERS1_(ptr noundef nonnull align 8 dereferenceable(16) %0, ptr noundef nonnull align 8 dereferenceable(976) %1) unnamed_addr #6 comdat align 2 {
  %3 = alloca ptr, align 8
  %4 = alloca ptr, align 8
  store ptr %0, ptr %3, align 8, !tbaa !12
  store ptr %1, ptr %4, align 8, !tbaa !18
  %5 = load ptr, ptr %3, align 8
  %6 = getelementptr inbounds nuw %class.obj_ref.27, ptr %5, i32 0, i32 0
  store ptr null, ptr %6, align 8, !tbaa !23
  %7 = getelementptr inbounds nuw %class.obj_ref.27, ptr %5, i32 0, i32 1
  %8 = load ptr, ptr %4, align 8, !tbaa !18
  store ptr %8, ptr %7, align 8, !tbaa !18
  ret void
}

; Function Attrs: mustprogress uwtable
define hidden void @_ZN13expr_replacerclEP4exprR7obj_refIS0_11ast_managerE(ptr noundef nonnull align 8 dereferenceable(8) %0, ptr noundef %1, ptr noundef nonnull align 8 dereferenceable(16) %2) #4 align 2 personality ptr @__gxx_personality_v0 {
  %4 = alloca ptr, align 8
  %5 = alloca ptr, align 8
  %6 = alloca ptr, align 8
  %7 = alloca %class.obj_ref.27, align 8
  %8 = alloca ptr, align 8
  %9 = alloca i32, align 4
  store ptr %0, ptr %4, align 8, !tbaa !3
  store ptr %1, ptr %5, align 8, !tbaa !8
  store ptr %2, ptr %6, align 8, !tbaa !10
  %10 = load ptr, ptr %4, align 8
  call void @llvm.lifetime.start.p0(i64 16, ptr %7) #3
  %11 = load ptr, ptr %10, align 8, !tbaa !14
  %12 = getelementptr inbounds ptr, ptr %11, i64 2
  %13 = load ptr, ptr %12, align 8
  %14 = call noundef nonnull align 8 dereferenceable(976) ptr %13(ptr noundef nonnull align 8 dereferenceable(8) %10)
  call void @_ZN7obj_refI3app11ast_managerEC2ERS1_(ptr noundef nonnull align 8 dereferenceable(16) %7, ptr noundef nonnull align 8 dereferenceable(976) %14)
  %15 = load ptr, ptr %5, align 8, !tbaa !8
  %16 = load ptr, ptr %6, align 8, !tbaa !10
  invoke void @_ZN13expr_replacerclEP4exprR7obj_refIS0_11ast_managerERS2_I3appS3_E(ptr noundef nonnull align 8 dereferenceable(8) %10, ptr noundef %15, ptr noundef nonnull align 8 dereferenceable(16) %16, ptr noundef nonnull align 8 dereferenceable(16) %7)
          to label %17 unwind label %18

17:                                               ; preds = %3
  call void @_ZN7obj_refI3app11ast_managerED2Ev(ptr noundef nonnull align 8 dereferenceable(16) %7) #3
  call void @llvm.lifetime.end.p0(i64 16, ptr %7) #3
  ret void

18:                                               ; preds = %3
  %19 = landingpad { ptr, i32 }
          cleanup
  %20 = extractvalue { ptr, i32 } %19, 0
  store ptr %20, ptr %8, align 8
  %21 = extractvalue { ptr, i32 } %19, 1
  store i32 %21, ptr %9, align 4
  call void @_ZN7obj_refI3app11ast_managerED2Ev(ptr noundef nonnull align 8 dereferenceable(16) %7) #3
  call void @llvm.lifetime.end.p0(i64 16, ptr %7) #3
  br label %22

22:                                               ; preds = %18
  %23 = load ptr, ptr %8, align 8
  %24 = load i32, ptr %9, align 4
  %25 = insertvalue { ptr, i32 } poison, ptr %23, 0
  %26 = insertvalue { ptr, i32 } %25, i32 %24, 1
  resume { ptr, i32 } %26
}