; Function Attrs: mustprogress uwtable
define hidden void @_ZN13expr_replacerclEP4exprR7obj_refIS0_11ast_managerE(ptr noundef nonnull align 8 dereferenceable(8) %0, ptr noundef %1, ptr noundef nonnull align 8 dereferenceable(16) %2) local_unnamed_addr #3 align 2 personality ptr @__gxx_personality_v0 {
  %4 = alloca %class.obj_ref, align 8
  %5 = alloca %class.obj_ref.27, align 8
  call void @llvm.lifetime.start.p0(i64 16, ptr nonnull %5) #18
  %6 = load ptr, ptr %0, align 8, !tbaa !3
  %7 = getelementptr inbounds nuw i8, ptr %6, i64 16
  %8 = load ptr, ptr %7, align 8
  %9 = tail call noundef nonnull align 8 dereferenceable(976) ptr %8(ptr noundef nonnull align 8 dereferenceable(8) %0)
  store ptr null, ptr %5, align 8, !tbaa !14
  %10 = getelementptr inbounds nuw i8, ptr %5, i64 8
  store ptr %9, ptr %10, align 8, !tbaa !12
  call void @llvm.lifetime.start.p0(i64 16, ptr nonnull %4) #18
  %11 = load ptr, ptr %0, align 8, !tbaa !3
  %12 = getelementptr inbounds nuw i8, ptr %11, i64 16
  %13 = load ptr, ptr %12, align 8
  %14 = invoke noundef nonnull align 8 dereferenceable(976) ptr %13(ptr noundef nonnull align 8 dereferenceable(8) %0)
          to label %.noexc unwind label %49

.noexc:                                           ; preds = %3
  store ptr null, ptr %4, align 8, !tbaa !6
  %15 = getelementptr inbounds nuw i8, ptr %4, i64 8
  store ptr %14, ptr %15, align 8, !tbaa !12
  %16 = load ptr, ptr %0, align 8, !tbaa !3
  %17 = getelementptr inbounds nuw i8, ptr %16, i64 32
  %18 = load ptr, ptr %17, align 8
  invoke void %18(ptr noundef nonnull align 8 dereferenceable(8) %0, ptr noundef %1, ptr noundef nonnull align 8 dereferenceable(16) %2, ptr noundef nonnull align 8 dereferenceable(16) %5, ptr noundef nonnull align 8 dereferenceable(16) %4)
          to label %19 unwind label %35

19:                                               ; preds = %.noexc
  %20 = load ptr, ptr %4, align 8, !tbaa !6
  %.not.i.i.i = icmp eq ptr %20, null
  br i1 %.not.i.i.i, label %37, label %21

21:                                               ; preds = %19
  %22 = load ptr, ptr %15, align 8, !tbaa !13
  %23 = load i32, ptr %20, align 4
  %24 = add i32 %23, 1073741823
  %25 = and i32 %24, 1073741823
  %26 = and i32 %23, -1073741824
  %27 = or disjoint i32 %25, %26
  store i32 %27, ptr %20, align 4
  %28 = and i32 %23, 1073741823
  %29 = icmp eq i32 %28, 1
  br i1 %29, label %30, label %37

30:                                               ; preds = %21
  %31 = getelementptr inbounds nuw i8, ptr %22, i64 648
  invoke void @_ZN18dependency_managerIN11ast_manager22expr_dependency_configEE3delEPNS2_10dependencyE(ptr noundef nonnull align 8 dereferenceable(24) %31, ptr noundef nonnull %20)
          to label %37 unwind label %32

32:                                               ; preds = %30
  %33 = landingpad { ptr, i32 }
          catch ptr null
  %34 = extractvalue { ptr, i32 } %33, 0
  call void @__clang_call_terminate(ptr %34) #19
  unreachable

35:                                               ; preds = %.noexc
  %36 = landingpad { ptr, i32 }
          cleanup
  call void @_ZN7obj_refIN18dependency_managerIN11ast_manager22expr_dependency_configEE10dependencyES1_ED2Ev(ptr noundef nonnull align 8 dereferenceable(16) %4) #18
  call void @llvm.lifetime.end.p0(i64 16, ptr nonnull %4) #18
  br label %.body

37:                                               ; preds = %30, %21, %19
  call void @llvm.lifetime.end.p0(i64 16, ptr nonnull %4) #18
  %38 = load ptr, ptr %5, align 8, !tbaa !14
  %.not.i.i = icmp eq ptr %38, null
  br i1 %.not.i.i, label %_ZN7obj_refI3app11ast_managerED2Ev.exit, label %39

39:                                               ; preds = %37
  %40 = load ptr, ptr %10, align 8, !tbaa !17
  %41 = getelementptr inbounds nuw i8, ptr %38, i64 8
  %42 = load i32, ptr %41, align 4, !tbaa !18
  %43 = add i32 %42, -1
  store i32 %43, ptr %41, align 4, !tbaa !18
  %44 = icmp eq i32 %43, 0
  br i1 %44, label %45, label %_ZN7obj_refI3app11ast_managerED2Ev.exit

45:                                               ; preds = %39
  invoke void @_ZN11ast_manager11delete_nodeEP3ast(ptr noundef nonnull align 8 dereferenceable(976) %40, ptr noundef nonnull %38)
          to label %_ZN7obj_refI3app11ast_managerED2Ev.exit unwind label %46

46:                                               ; preds = %45
  %47 = landingpad { ptr, i32 }
          catch ptr null
  %48 = extractvalue { ptr, i32 } %47, 0
  call void @__clang_call_terminate(ptr %48) #19
  unreachable

_ZN7obj_refI3app11ast_managerED2Ev.exit:          ; preds = %37, %39, %45
  call void @llvm.lifetime.end.p0(i64 16, ptr nonnull %5) #18
  ret void

49:                                               ; preds = %3
  %50 = landingpad { ptr, i32 }
          cleanup
  br label %.body

.body:                                            ; preds = %35, %49
  %eh.lpad-body = phi { ptr, i32 } [ %50, %49 ], [ %36, %35 ]
  call void @_ZN7obj_refI3app11ast_managerED2Ev(ptr noundef nonnull align 8 dereferenceable(16) %5) #18
  call void @llvm.lifetime.end.p0(i64 16, ptr nonnull %5) #18
  resume { ptr, i32 } %eh.lpad-body
}